target datalayout = "e-m:e-p270:32:32-p271:32:32-p272:64:64-i64:64-i128:128-f80:128-n8:16:32:64-S128"
target triple = "x86_64-pc-linux-gnu"

%"class.std::__cxx11::basic_string" = type { %"struct.std::__cxx11::basic_string<char>::_Alloc_hider", i64, %union.anon }
%"struct.std::__cxx11::basic_string<char>::_Alloc_hider" = type { ptr }
%union.anon = type { i64, [8 x i8] }
%"class.duckdb_apache::thrift::TBase" = type { ptr }
%"class.duckdb_parquet::Statistics" = type <{ %"class.duckdb_apache::thrift::TBase", %"class.std::__cxx11::basic_string", %"class.std::__cxx11::basic_string", i64, i64, %"class.std::__cxx11::basic_string", %"class.std::__cxx11::basic_string", i8, i8, %"struct.duckdb_parquet::_Statistics__isset", [5 x i8] }>
%"struct.duckdb_parquet::_Statistics__isset" = type { i8 }

; Function Attrs: mustprogress nounwind uwtable
define void @_ZN14duckdb_parquet10Statistics24__set_is_max_value_exactEb(ptr noundef nonnull align 8 dereferenceable(155) %0, i1 noundef zeroext %1) #1 align 2 {
  %3 = alloca ptr, align 8
  %4 = alloca i8, align 1
  store ptr %0, ptr %3, align 8, !tbaa !113
  %5 = zext i1 %1 to i8
  store i8 %5, ptr %4, align 1, !tbaa !44
  %6 = load ptr, ptr %3, align 8
  %7 = load i8, ptr %4, align 1, !tbaa !44, !range !46, !noundef !47
  %8 = trunc i8 %7 to i1
  %9 = getelementptr inbounds nuw %"class.duckdb_parquet::Statistics", ptr %6, i32 0, i32 7
  %10 = zext i1 %8 to i8
  store i8 %10, ptr %9, align 8, !tbaa !121
  %11 = getelementptr inbounds nuw %"class.duckdb_parquet::Statistics", ptr %6, i32 0, i32 9
  %12 = load i8, ptr %11, align 2
  %13 = and i8 %12, -65
  %14 = or i8 %13, 64
  store i8 %14, ptr %11, align 2
  ret void
}